target datalayout = "e-m:e-p270:32:32-p271:32:32-p272:64:64-i64:64-i128:128-f80:128-n8:16:32:64-S128"
target triple = "x86_64-unknown-linux-gnu"

%"class.std::shared_ptr" = type { %"class.std::__shared_ptr" }
%"class.std::__shared_ptr" = type { ptr, %"class.std::__shared_count" }
%"class.std::__shared_count" = type { ptr }
%"class.std::__cxx11::basic_string" = type { %"struct.std::__cxx11::basic_string<char>::_Alloc_hider", i64, %union.anon }
%"struct.std::__cxx11::basic_string<char>::_Alloc_hider" = type { ptr }
%union.anon = type { i64, [8 x i8] }
%"class.std::vector.10" = type { %"struct.std::_Vector_base.11" }
%"struct.std::_Vector_base.11" = type { %"struct.std::_Vector_base<std::shared_ptr<arrow::Field>, std::allocator<std::shared_ptr<arrow::Field>>>::_Vector_impl" }
%"struct.std::_Vector_base<std::shared_ptr<arrow::Field>, std::allocator<std::shared_ptr<arrow::Field>>>::_Vector_impl" = type { %"struct.std::_Vector_base<std::shared_ptr<arrow::Field>, std::allocator<std::shared_ptr<arrow::Field>>>::_Vector_impl_data" }
%"struct.std::_Vector_base<std::shared_ptr<arrow::Field>, std::allocator<std::shared_ptr<arrow::Field>>>::_Vector_impl_data" = type { ptr, ptr, ptr }
%"struct.arrow::TypeHolder" = type { ptr, %"class.std::shared_ptr" }
%"class.arrow::DataType" = type { %"class.arrow::detail::Fingerprintable", %"class.std::enable_shared_from_this", i32, %"class.std::vector.10" }
%"class.arrow::detail::Fingerprintable" = type { ptr, %"struct.std::atomic", %"struct.std::atomic" }
%"struct.std::atomic" = type { %"struct.std::__atomic_base" }
%"struct.std::__atomic_base" = type { ptr }
%"class.std::enable_shared_from_this" = type { %"class.std::weak_ptr" }
%"class.std::weak_ptr" = type { %"class.std::__weak_ptr" }
%"class.std::__weak_ptr" = type { ptr, %"class.std::__weak_count" }
%"class.std::__weak_count" = type { ptr }
%"class.arrow::FixedWidthType" = type { %"class.arrow::DataType" }
%"class.arrow::TimestampType" = type { %"class.arrow::TemporalType", i32, %"class.std::__cxx11::basic_string" }
%"class.arrow::TemporalType" = type { %"class.arrow::FixedWidthType" }
%"class.arrow::DurationType" = type <{ %"class.arrow::TemporalType", i32, [4 x i8] }>
%"class.arrow::TimeType" = type <{ %"class.arrow::TemporalType", i32, [4 x i8] }>

; Function Attrs: mustprogress nounwind uwtable
define linkonce_odr noundef nonnull align 8 dereferenceable(76) ptr @_ZN5arrow8internal12checked_castIRKNS_10Time64TypeERKNS_8DataTypeEEET_OT0_(ptr noundef nonnull align 8 dereferenceable(72) %value) #4 comdat {
entry:
  %value.addr = alloca ptr, align 8
  store ptr %value, ptr %value.addr, align 8
  %0 = load ptr, ptr %value.addr, align 8
  ret ptr %0
}

; Function Attrs: mustprogress nounwind uwtable
define linkonce_odr noundef i32 @_ZNK5arrow8TimeType4unitEv(ptr noundef nonnull align 8 dereferenceable(76) %this) #4 comdat align 2 {
entry:
  %this.addr = alloca ptr, align 8
  store ptr %this, ptr %this.addr, align 8
  %this1 = load ptr, ptr %this.addr, align 8
  %unit_ = getelementptr inbounds %"class.arrow::TimeType", ptr %this1, i32 0, i32 1
  %0 = load i32, ptr %unit_, align 8
  ret i32 %0
}

; Function Attrs: mustprogress nounwind uwtable
define linkonce_odr noundef nonnull align 8 dereferenceable(76) ptr @_ZN5arrow8internal12checked_castIRKNS_10Time32TypeERKNS_8DataTypeEEET_OT0_(ptr noundef nonnull align 8 dereferenceable(72) %value) #4 comdat {
entry:
  %value.addr = alloca ptr, align 8
  store ptr %value, ptr %value.addr, align 8
  %0 = load ptr, ptr %value.addr, align 8
  ret ptr %0
}

; Function Attrs: mustprogress nounwind uwtable
define linkonce_odr noundef i32 @_ZNK5arrow12DurationType4unitEv(ptr noundef nonnull align 8 dereferenceable(76) %this) #4 comdat align 2 {
entry:
  %this.addr = alloca ptr, align 8
  store ptr %this, ptr %this.addr, align 8
  %this1 = load ptr, ptr %this.addr, align 8
  %unit_ = getelementptr inbounds %"class.arrow::DurationType", ptr %this1, i32 0, i32 1
  %0 = load i32, ptr %unit_, align 8
  ret i32 %0
}

; Function Attrs: mustprogress nounwind uwtable
define linkonce_odr noundef nonnull align 8 dereferenceable(76) ptr @_ZN5arrow8internal12checked_castIRKNS_12DurationTypeERKNS_8DataTypeEEET_OT0_(ptr noundef nonnull align 8 dereferenceable(72) %value) #4 comdat {
entry:
  %value.addr = alloca ptr, align 8
  store ptr %value, ptr %value.addr, align 8
  %0 = load ptr, ptr %value.addr, align 8
  ret ptr %0
}

; Function Attrs: mustprogress nounwind uwtable
define linkonce_odr noundef i32 @_ZNK5arrow13TimestampType4unitEv(ptr noundef nonnull align 8 dereferenceable(112) %this) #4 comdat align 2 {
entry:
  %this.addr = alloca ptr, align 8
  store ptr %this, ptr %this.addr, align 8
  %this1 = load ptr, ptr %this.addr, align 8
  %unit_ = getelementptr inbounds %"class.arrow::TimestampType", ptr %this1, i32 0, i32 1
  %0 = load i32, ptr %unit_, align 8
  ret i32 %0
}

; Function Attrs: mustprogress nounwind uwtable
define linkonce_odr noundef nonnull align 8 dereferenceable(112) ptr @_ZN5arrow8internal12checked_castIRKNS_13TimestampTypeERKNS_8DataTypeEEET_OT0_(ptr noundef nonnull align 8 dereferenceable(72) %value) #4 comdat {
entry:
  %value.addr = alloca ptr, align 8
  store ptr %value, ptr %value.addr, align 8
  %0 = load ptr, ptr %value.addr, align 8
  ret ptr %0
}

; Function Attrs: mustprogress nounwind uwtable
define linkonce_odr noundef nonnull align 4 dereferenceable(4) ptr @_ZSt3maxIN5arrow8TimeUnit4typeEERKT_S5_S5_(ptr noundef nonnull align 4 dereferenceable(4) %__a, ptr noundef nonnull align 4 dereferenceable(4) %__b) #4 comdat {
entry:
  %retval = alloca ptr, align 8
  %__a.addr = alloca ptr, align 8
  %__b.addr = alloca ptr, align 8
  store ptr %__a, ptr %__a.addr, align 8
  store ptr %__b, ptr %__b.addr, align 8
  %0 = load ptr, ptr %__a.addr, align 8
  %1 = load i32, ptr %0, align 4
  %2 = load ptr, ptr %__b.addr, align 8
  %3 = load i32, ptr %2, align 4
  %cmp = icmp slt i32 %1, %3
  br i1 %cmp, label %if.then, label %if.end

if.then:                                          ; preds = %entry
  %4 = load ptr, ptr %__b.addr, align 8
  store ptr %4, ptr %retval, align 8
  br label %return

if.end:                                           ; preds = %entry
  %5 = load ptr, ptr %__a.addr, align 8
  store ptr %5, ptr %retval, align 8
  br label %return

return:                                           ; preds = %if.end, %if.then
  %6 = load ptr, ptr %retval, align 8
  ret ptr %6
}

; Function Attrs: mustprogress nounwind uwtable
define linkonce_odr noundef i32 @_ZNK5arrow8DataType2idEv(ptr noundef nonnull align 8 dereferenceable(72) %this) #4 comdat align 2 {
entry:
  %this.addr = alloca ptr, align 8
  store ptr %this, ptr %this.addr, align 8
  %this1 = load ptr, ptr %this.addr, align 8
  %id_ = getelementptr inbounds %"class.arrow::DataType", ptr %this1, i32 0, i32 2
  %0 = load i32, ptr %id_, align 8
  ret i32 %0
}

; Function Attrs: mustprogress uwtable
define noundef zeroext i1 @_ZN5arrow7compute8internal24CommonTemporalResolutionEPKNS_10TypeHolderEmPNS_8TimeUnit4typeE(ptr noundef %begin, i64 noundef %count, ptr noundef %finest_unit) #0 {
entry:
  %begin.addr = alloca ptr, align 8
  %count.addr = alloca i64, align 8
  %finest_unit.addr = alloca ptr, align 8
  %is_time_unit = alloca i8, align 1
  %end = alloca ptr, align 8
  %it = alloca ptr, align 8
  %id = alloca i32, align 4
  %ref.tmp = alloca i32, align 4
  %ty = alloca ptr, align 8
  %ref.tmp6 = alloca i32, align 4
  %ty10 = alloca ptr, align 8
  %ref.tmp13 = alloca i32, align 4
  %ty17 = alloca ptr, align 8
  %ref.tmp20 = alloca i32, align 4
  %ty24 = alloca ptr, align 8
  %ref.tmp27 = alloca i32, align 4
  store ptr %begin, ptr %begin.addr, align 8
  store i64 %count, ptr %count.addr, align 8
  store ptr %finest_unit, ptr %finest_unit.addr, align 8
  store i8 0, ptr %is_time_unit, align 1
  %0 = load ptr, ptr %finest_unit.addr, align 8
  store i32 0, ptr %0, align 4
  %1 = load ptr, ptr %begin.addr, align 8
  %2 = load i64, ptr %count.addr, align 8
  %add.ptr = getelementptr inbounds %"struct.arrow::TypeHolder", ptr %1, i64 %2
  store ptr %add.ptr, ptr %end, align 8
  %3 = load ptr, ptr %begin.addr, align 8
  store ptr %3, ptr %it, align 8
  br label %for.cond

for.cond:                                         ; preds = %for.inc, %entry
  %4 = load ptr, ptr %it, align 8
  %5 = load ptr, ptr %end, align 8
  %cmp = icmp ne ptr %4, %5
  br i1 %cmp, label %for.body, label %for.end

for.body:                                         ; preds = %for.cond
  %6 = load ptr, ptr %it, align 8
  %type = getelementptr inbounds %"struct.arrow::TypeHolder", ptr %6, i32 0, i32 0
  %7 = load ptr, ptr %type, align 8
  %call = call noundef i32 @_ZNK5arrow8DataType2idEv(ptr noundef nonnull align 8 dereferenceable(72) %7)
  store i32 %call, ptr %id, align 4
  %8 = load i32, ptr %id, align 4
  switch i32 %8, label %sw.default [
    i32 16, label %sw.bb
    i32 17, label %sw.bb1
    i32 18, label %sw.bb3
    i32 33, label %sw.bb9
    i32 19, label %sw.bb16
    i32 20, label %sw.bb23
  ]

sw.bb:                                            ; preds = %for.body
  store i8 1, ptr %is_time_unit, align 1
  br label %for.inc

sw.bb1:                                           ; preds = %for.body
  %9 = load ptr, ptr %finest_unit.addr, align 8
  store i32 1, ptr %ref.tmp, align 4
  %call2 = call noundef nonnull align 4 dereferenceable(4) ptr @_ZSt3maxIN5arrow8TimeUnit4typeEERKT_S5_S5_(ptr noundef nonnull align 4 dereferenceable(4) %9, ptr noundef nonnull align 4 dereferenceable(4) %ref.tmp)
  %10 = load i32, ptr %call2, align 4
  %11 = load ptr, ptr %finest_unit.addr, align 8
  store i32 %10, ptr %11, align 4
  store i8 1, ptr %is_time_unit, align 1
  br label %for.inc

sw.bb3:                                           ; preds = %for.body
  %12 = load ptr, ptr %it, align 8
  %type4 = getelementptr inbounds %"struct.arrow::TypeHolder", ptr %12, i32 0, i32 0
  %13 = load ptr, ptr %type4, align 8
  %call5 = call noundef nonnull align 8 dereferenceable(112) ptr @_ZN5arrow8internal12checked_castIRKNS_13TimestampTypeERKNS_8DataTypeEEET_OT0_(ptr noundef nonnull align 8 dereferenceable(72) %13)
  store ptr %call5, ptr %ty, align 8
  %14 = load ptr, ptr %finest_unit.addr, align 8
  %15 = load ptr, ptr %ty, align 8
  %call7 = call noundef i32 @_ZNK5arrow13TimestampType4unitEv(ptr noundef nonnull align 8 dereferenceable(112) %15)
  store i32 %call7, ptr %ref.tmp6, align 4
  %call8 = call noundef nonnull align 4 dereferenceable(4) ptr @_ZSt3maxIN5arrow8TimeUnit4typeEERKT_S5_S5_(ptr noundef nonnull align 4 dereferenceable(4) %14, ptr noundef nonnull align 4 dereferenceable(4) %ref.tmp6)
  %16 = load i32, ptr %call8, align 4
  %17 = load ptr, ptr %finest_unit.addr, align 8
  store i32 %16, ptr %17, align 4
  store i8 1, ptr %is_time_unit, align 1
  br label %for.inc

sw.bb9:                                           ; preds = %for.body
  %18 = load ptr, ptr %it, align 8
  %type11 = getelementptr inbounds %"struct.arrow::TypeHolder", ptr %18, i32 0, i32 0
  %19 = load ptr, ptr %type11, align 8
  %call12 = call noundef nonnull align 8 dereferenceable(76) ptr @_ZN5arrow8internal12checked_castIRKNS_12DurationTypeERKNS_8DataTypeEEET_OT0_(ptr noundef nonnull align 8 dereferenceable(72) %19)
  store ptr %call12, ptr %ty10, align 8
  %20 = load ptr, ptr %finest_unit.addr, align 8
  %21 = load ptr, ptr %ty10, align 8
  %call14 = call noundef i32 @_ZNK5arrow12DurationType4unitEv(ptr noundef nonnull align 8 dereferenceable(76) %21)
  store i32 %call14, ptr %ref.tmp13, align 4
  %call15 = call noundef nonnull align 4 dereferenceable(4) ptr @_ZSt3maxIN5arrow8TimeUnit4typeEERKT_S5_S5_(ptr noundef nonnull align 4 dereferenceable(4) %20, ptr noundef nonnull align 4 dereferenceable(4) %ref.tmp13)
  %22 = load i32, ptr %call15, align 4
  %23 = load ptr, ptr %finest_unit.addr, align 8
  store i32 %22, ptr %23, align 4
  store i8 1, ptr %is_time_unit, align 1
  br label %for.inc

sw.bb16:                                          ; preds = %for.body
  %24 = load ptr, ptr %it, align 8
  %type18 = getelementptr inbounds %"struct.arrow::TypeHolder", ptr %24, i32 0, i32 0
  %25 = load ptr, ptr %type18, align 8
  %call19 = call noundef nonnull align 8 dereferenceable(76) ptr @_ZN5arrow8internal12checked_castIRKNS_10Time32TypeERKNS_8DataTypeEEET_OT0_(ptr noundef nonnull align 8 dereferenceable(72) %25)
  store ptr %call19, ptr %ty17, align 8
  %26 = load ptr, ptr %finest_unit.addr, align 8
  %27 = load ptr, ptr %ty17, align 8
  %call21 = call noundef i32 @_ZNK5arrow8TimeType4unitEv(ptr noundef nonnull align 8 dereferenceable(76) %27)
  store i32 %call21, ptr %ref.tmp20, align 4
  %call22 = call noundef nonnull align 4 dereferenceable(4) ptr @_ZSt3maxIN5arrow8TimeUnit4typeEERKT_S5_S5_(ptr noundef nonnull align 4 dereferenceable(4) %26, ptr noundef nonnull align 4 dereferenceable(4) %ref.tmp20)
  %28 = load i32, ptr %call22, align 4
  %29 = load ptr, ptr %finest_unit.addr, align 8
  store i32 %28, ptr %29, align 4
  store i8 1, ptr %is_time_unit, align 1
  br label %for.inc

sw.bb23:                                          ; preds = %for.body
  %30 = load ptr, ptr %it, align 8
  %type25 = getelementptr inbounds %"struct.arrow::TypeHolder", ptr %30, i32 0, i32 0
  %31 = load ptr, ptr %type25, align 8
  %call26 = call noundef nonnull align 8 dereferenceable(76) ptr @_ZN5arrow8internal12checked_castIRKNS_10Time64TypeERKNS_8DataTypeEEET_OT0_(ptr noundef nonnull align 8 dereferenceable(72) %31)
  store ptr %call26, ptr %ty24, align 8
  %32 = load ptr, ptr %finest_unit.addr, align 8
  %33 = load ptr, ptr %ty24, align 8
  %call28 = call noundef i32 @_ZNK5arrow8TimeType4unitEv(ptr noundef nonnull align 8 dereferenceable(76) %33)
  store i32 %call28, ptr %ref.tmp27, align 4
  %call29 = call noundef nonnull align 4 dereferenceable(4) ptr @_ZSt3maxIN5arrow8TimeUnit4typeEERKT_S5_S5_(ptr noundef nonnull align 4 dereferenceable(4) %32, ptr noundef nonnull align 4 dereferenceable(4) %ref.tmp27)
  %34 = load i32, ptr %call29, align 4
  %35 = load ptr, ptr %finest_unit.addr, align 8
  store i32 %34, ptr %35, align 4
  store i8 1, ptr %is_time_unit, align 1
  br label %for.inc

sw.default:                                       ; preds = %for.body
  br label %for.inc

for.inc:                                          ; preds = %sw.default, %sw.bb23, %sw.bb16, %sw.bb9, %sw.bb3, %sw.bb1, %sw.bb
  %36 = load ptr, ptr %it, align 8
  %incdec.ptr = getelementptr inbounds %"struct.arrow::TypeHolder", ptr %36, i32 1
  store ptr %incdec.ptr, ptr %it, align 8
  br label %for.cond, !llvm.loop !25

for.end:                                          ; preds = %for.cond
  %37 = load i8, ptr %is_time_unit, align 1
  %tobool = trunc i8 %37 to i1
  ret i1 %tobool
}