; Function Attrs: mustprogress nofree norecurse nosync nounwind memory(read, argmem: readwrite, inaccessiblemem: none) uwtable
define noundef zeroext i1 @_ZN5arrow7compute8internal24CommonTemporalResolutionEPKNS_10TypeHolderEmPNS_8TimeUnit4typeE(ptr noundef readonly %begin, i64 noundef %count, ptr noundef writeonly captures(none) initializes((0, 4)) %finest_unit) local_unnamed_addr #8 {
entry:
  store i32 0, ptr %finest_unit, align 4
  %add.ptr = getelementptr inbounds %"struct.arrow::TypeHolder", ptr %begin, i64 %count
  %cmp.not42 = icmp eq i64 %count, 0
  br i1 %cmp.not42, label %for.end, label %for.body

for.body:                                         ; preds = %entry, %for.inc
  %0 = phi i32 [ %7, %for.inc ], [ 0, %entry ]
  %is_time_unit.044 = phi i1 [ %is_time_unit.1, %for.inc ], [ false, %entry ]
  %it.043 = phi ptr [ %incdec.ptr, %for.inc ], [ %begin, %entry ]
  %1 = load ptr, ptr %it.043, align 8
  %id_.i = getelementptr inbounds nuw i8, ptr %1, i64 40
  %2 = load i32, ptr %id_.i, align 8
  switch i32 %2, label %for.inc [
    i32 16, label %sw.bb
    i32 17, label %sw.bb1
    i32 18, label %sw.bb3
    i32 33, label %sw.bb9
    i32 19, label %sw.bb16
    i32 20, label %sw.bb23
  ]

sw.bb:                                            ; preds = %for.body
  br label %for.inc

sw.bb1:                                           ; preds = %for.body
  %.sroa.speculated40 = tail call i32 @llvm.smax.i32(i32 %0, i32 1)
  store i32 %.sroa.speculated40, ptr %finest_unit, align 4
  br label %for.inc

sw.bb3:                                           ; preds = %for.body
  %unit_.i = getelementptr inbounds nuw i8, ptr %1, i64 72
  %3 = load i32, ptr %unit_.i, align 8
  %.sroa.speculated37 = tail call i32 @llvm.smax.i32(i32 %0, i32 %3)
  store i32 %.sroa.speculated37, ptr %finest_unit, align 4
  br label %for.inc

sw.bb9:                                           ; preds = %for.body
  %unit_.i20 = getelementptr inbounds nuw i8, ptr %1, i64 72
  %4 = load i32, ptr %unit_.i20, align 8
  %.sroa.speculated34 = tail call i32 @llvm.smax.i32(i32 %0, i32 %4)
  store i32 %.sroa.speculated34, ptr %finest_unit, align 4
  br label %for.inc

sw.bb16:                                          ; preds = %for.body
  %unit_.i23 = getelementptr inbounds nuw i8, ptr %1, i64 72
  %5 = load i32, ptr %unit_.i23, align 8
  %.sroa.speculated31 = tail call i32 @llvm.smax.i32(i32 %0, i32 %5)
  store i32 %.sroa.speculated31, ptr %finest_unit, align 4
  br label %for.inc

sw.bb23:                                          ; preds = %for.body
  %unit_.i26 = getelementptr inbounds nuw i8, ptr %1, i64 72
  %6 = load i32, ptr %unit_.i26, align 8
  %.sroa.speculated = tail call i32 @llvm.smax.i32(i32 %0, i32 %6)
  store i32 %.sroa.speculated, ptr %finest_unit, align 4
  br label %for.inc

for.inc:                                          ; preds = %for.body, %sw.bb23, %sw.bb16, %sw.bb9, %sw.bb3, %sw.bb1, %sw.bb
  %7 = phi i32 [ %0, %for.body ], [ %.sroa.speculated, %sw.bb23 ], [ %.sroa.speculated31, %sw.bb16 ], [ %.sroa.speculated34, %sw.bb9 ], [ %.sroa.speculated37, %sw.bb3 ], [ %.sroa.speculated40, %sw.bb1 ], [ %0, %sw.bb ]
  %is_time_unit.1 = phi i1 [ %is_time_unit.044, %for.body ], [ true, %sw.bb23 ], [ true, %sw.bb16 ], [ true, %sw.bb9 ], [ true, %sw.bb3 ], [ true, %sw.bb1 ], [ true, %sw.bb ]
  %incdec.ptr = getelementptr inbounds nuw i8, ptr %it.043, i64 24
  %cmp.not = icmp eq ptr %incdec.ptr, %add.ptr
  br i1 %cmp.not, label %for.end, label %for.body, !llvm.loop !16

for.end:                                          ; preds = %for.inc, %entry
  %is_time_unit.0.lcssa = phi i1 [ false, %entry ], [ %is_time_unit.1, %for.inc ]
  ret i1 %is_time_unit.0.lcssa
}